target datalayout = "e-m:e-p270:32:32-p271:32:32-p272:64:64-i64:64-i128:128-f80:128-n8:16:32:64-S128"
target triple = "x86_64-pc-linux-gnu"

@.str.17 = private unnamed_addr constant [41 x i8] c"internal error: lock cannot be acquired\0A\00", align 1

; Function Attrs: inlinehint nounwind uwtable
define internal void @mi_lock_acquire(ptr noundef %0) #4 {
  %2 = alloca ptr, align 8
  %3 = alloca i32, align 4
  store ptr %0, ptr %2, align 8, !tbaa !53
  call void @llvm.lifetime.start.p0(i64 4, ptr %3) #13
  %4 = load ptr, ptr %2, align 8, !tbaa !53
  %5 = call i32 @pthread_mutex_lock(ptr noundef %4) #14
  store i32 %5, ptr %3, align 4, !tbaa !52
  %6 = load i32, ptr %3, align 4, !tbaa !52
  %7 = icmp ne i32 %6, 0
  br i1 %7, label %8, label %10

8:                                                ; preds = %1
  %9 = load i32, ptr %3, align 4, !tbaa !52
  call void (i32, ptr, ...) @_mi_error_message(i32 noundef %9, ptr noundef @.str.17) #12
  br label %10

10:                                               ; preds = %8, %1
  call void @llvm.lifetime.end.p0(i64 4, ptr %3) #13
  ret void
}