; Function Attrs: inlinehint nounwind uwtable
define internal fastcc void @mi_lock_acquire(ptr noundef %0) unnamed_addr #14 {
  %2 = tail call i32 @pthread_mutex_lock(ptr noundef %0) #20
  %.not = icmp eq i32 %2, 0
  br i1 %.not, label %4, label %3

3:                                                ; preds = %1
  tail call void (i32, ptr, ...) @_mi_error_message(i32 noundef %2, ptr noundef nonnull @.str.17) #20
  br label %4

4:                                                ; preds = %3, %1
  ret void
}